target datalayout = "e-m:e-p270:32:32-p271:32:32-p272:64:64-i64:64-i128:128-f80:128-n8:16:32:64-S128"
target triple = "x86_64-pc-linux-gnu"

%struct.opcode_description = type { i32, ptr, i32, i32, i32, i32 }

@invalid_opcode_description = internal constant { i32, [4 x i8], ptr, i32, i32, i32, i32 } { i32 -1, [4 x i8] zeroinitializer, ptr @.str.61, i32 0, i32 0, i32 0, i32 0 }, align 8

; Function Attrs: nounwind uwtable
define dso_local ptr @opcode_describe(i32 noundef %0) #0 {
  %2 = alloca ptr, align 8
  %3 = alloca i32, align 4
  store i32 %0, ptr %3, align 4, !tbaa !4
  %4 = load i32, ptr %3, align 4, !tbaa !4
  %5 = icmp sge i32 %4, 0
  br i1 %5, label %6, label %13

6:                                                ; preds = %1
  %7 = load i32, ptr %3, align 4, !tbaa !4
  %8 = icmp slt i32 %7, 43
  br i1 %8, label %9, label %13

9:                                                ; preds = %6
  %10 = load i32, ptr %3, align 4, !tbaa !4
  %11 = zext i32 %10 to i64
  %12 = getelementptr inbounds nuw [43 x %struct.opcode_description], ptr @opcode_descriptions, i64 0, i64 %11
  store ptr %12, ptr %2, align 8
  br label %14

13:                                               ; preds = %6, %1
  store ptr @invalid_opcode_description, ptr %2, align 8
  br label %14

14:                                               ; preds = %13, %9
  %15 = load ptr, ptr %2, align 8
  ret ptr %15
}

; Function Attrs: nounwind uwtable
define dso_local i32 @bytecode_operation_length(ptr noundef %0) #0 {
  %2 = alloca ptr, align 8
  %3 = alloca i32, align 4
  store ptr %0, ptr %2, align 8, !tbaa !8
  call void @llvm.lifetime.start.p0(i64 4, ptr %3) #4
  %4 = load ptr, ptr %2, align 8, !tbaa !8
  %5 = load i16, ptr %4, align 2, !tbaa !11
  %6 = zext i16 %5 to i32
  %7 = call ptr @opcode_describe(i32 noundef %6)
  %8 = getelementptr inbounds nuw %struct.opcode_description, ptr %7, i32 0, i32 3
  %9 = load i32, ptr %8, align 4, !tbaa !13
  store i32 %9, ptr %3, align 4, !tbaa !4
  %10 = load ptr, ptr %2, align 8, !tbaa !8
  %11 = load i16, ptr %10, align 2, !tbaa !11
  %12 = zext i16 %11 to i32
  %13 = icmp eq i32 %12, 28
  br i1 %13, label %19, label %14

14:                                               ; preds = %1
  %15 = load ptr, ptr %2, align 8, !tbaa !8
  %16 = load i16, ptr %15, align 2, !tbaa !11
  %17 = zext i16 %16 to i32
  %18 = icmp eq i32 %17, 30
  br i1 %18, label %19, label %27

19:                                               ; preds = %14, %1
  %20 = load ptr, ptr %2, align 8, !tbaa !8
  %21 = getelementptr inbounds i16, ptr %20, i64 1
  %22 = load i16, ptr %21, align 2, !tbaa !11
  %23 = zext i16 %22 to i32
  %24 = mul nsw i32 %23, 2
  %25 = load i32, ptr %3, align 4, !tbaa !4
  %26 = add nsw i32 %25, %24
  store i32 %26, ptr %3, align 4, !tbaa !4
  br label %27

27:                                               ; preds = %19, %14
  %28 = load i32, ptr %3, align 4, !tbaa !4
  call void @llvm.lifetime.end.p0(i64 4, ptr %3) #4
  ret i32 %28
}