; Function Attrs: mustprogress nofree norecurse nosync nounwind willreturn memory(argmem: read) uwtable
define dso_local i32 @bytecode_operation_length(ptr noundef readonly captures(none) %0) local_unnamed_addr #1 {
  %2 = load i16, ptr %0, align 2, !tbaa !4
  %or.cond.i = icmp ult i16 %2, 43
  %3 = zext nneg i16 %2 to i64
  %4 = getelementptr inbounds nuw [43 x %struct.opcode_description], ptr @opcode_descriptions, i64 0, i64 %3
  %.0.i = select i1 %or.cond.i, ptr %4, ptr @invalid_opcode_description
  %5 = getelementptr inbounds nuw i8, ptr %.0.i, i64 20
  %6 = load i32, ptr %5, align 4, !tbaa !8
  switch i16 %2, label %13 [
    i16 28, label %7
    i16 30, label %7
  ]

7:                                                ; preds = %1, %1
  %8 = getelementptr inbounds nuw i8, ptr %0, i64 2
  %9 = load i16, ptr %8, align 2, !tbaa !4
  %10 = zext i16 %9 to i32
  %11 = shl nuw nsw i32 %10, 1
  %12 = add nsw i32 %11, %6
  br label %13

13:                                               ; preds = %1, %7
  %.0 = phi i32 [ %12, %7 ], [ %6, %1 ]
  ret i32 %.0
}